target datalayout = "e-m:e-p270:32:32-p271:32:32-p272:64:64-i64:64-i128:128-f80:128-n8:16:32:64-S128"
target triple = "x86_64-pc-linux-gnu"

%"struct.icu_77::LSR" = type <{ ptr, ptr, ptr, ptr, i32, i32, i32, [4 x i8] }>

@.str = private unnamed_addr constant [1 x i8] zeroinitializer, align 1

; Function Attrs: mustprogress uwtable
define void @_ZN6icu_773LSR11deleteOwnedEv(ptr noundef nonnull align 8 dereferenceable(48) %0) #1 align 2 {
  %2 = alloca ptr, align 8
  store ptr %0, ptr %2, align 8, !tbaa !23
  %3 = load ptr, ptr %2, align 8
  %4 = getelementptr inbounds nuw %"struct.icu_77::LSR", ptr %3, i32 0, i32 3
  %5 = load ptr, ptr %4, align 8, !tbaa !30
  call void @uprv_free_77(ptr noundef %5)
  ret void
}

; Function Attrs: inlinehint mustprogress nounwind uwtable
define linkonce_odr void @_ZN6icu_773LSRD2Ev(ptr noundef nonnull align 8 dereferenceable(48) %0) unnamed_addr #2 comdat align 2 personality ptr @__gxx_personality_v0 {
  %2 = alloca ptr, align 8
  store ptr %0, ptr %2, align 8, !tbaa !23
  %3 = load ptr, ptr %2, align 8
  %4 = getelementptr inbounds nuw %"struct.icu_77::LSR", ptr %3, i32 0, i32 3
  %5 = load ptr, ptr %4, align 8, !tbaa !30
  %6 = icmp ne ptr %5, null
  br i1 %6, label %7, label %9

7:                                                ; preds = %1
  invoke void @_ZN6icu_773LSR11deleteOwnedEv(ptr noundef nonnull align 8 dereferenceable(48) %3)
          to label %8 unwind label %10

8:                                                ; preds = %7
  br label %9

9:                                                ; preds = %8, %1
  ret void

10:                                               ; preds = %7
  %11 = landingpad { ptr, i32 }
          catch ptr null
  %12 = extractvalue { ptr, i32 } %11, 0
  call void @__clang_call_terminate(ptr %12) #12
  unreachable
}

; Function Attrs: mustprogress nounwind uwtable
define noundef nonnull align 8 dereferenceable(48) ptr @_ZN6icu_773LSRaSEOS0_(ptr noundef nonnull align 8 dereferenceable(48) %0, ptr noundef nonnull align 8 dereferenceable(48) %1) #0 align 2 {
  %3 = alloca ptr, align 8
  %4 = alloca ptr, align 8
  store ptr %0, ptr %3, align 8, !tbaa !23
  store ptr %1, ptr %4, align 8, !tbaa !23
  %5 = load ptr, ptr %3, align 8
  call void @_ZN6icu_773LSRD2Ev(ptr noundef nonnull align 8 dereferenceable(48) %5) #10
  %6 = load ptr, ptr %4, align 8, !tbaa !23
  %7 = getelementptr inbounds nuw %"struct.icu_77::LSR", ptr %6, i32 0, i32 0
  %8 = load ptr, ptr %7, align 8, !tbaa !26
  %9 = getelementptr inbounds nuw %"struct.icu_77::LSR", ptr %5, i32 0, i32 0
  store ptr %8, ptr %9, align 8, !tbaa !26
  %10 = load ptr, ptr %4, align 8, !tbaa !23
  %11 = getelementptr inbounds nuw %"struct.icu_77::LSR", ptr %10, i32 0, i32 1
  %12 = load ptr, ptr %11, align 8, !tbaa !28
  %13 = getelementptr inbounds nuw %"struct.icu_77::LSR", ptr %5, i32 0, i32 1
  store ptr %12, ptr %13, align 8, !tbaa !28
  %14 = load ptr, ptr %4, align 8, !tbaa !23
  %15 = getelementptr inbounds nuw %"struct.icu_77::LSR", ptr %14, i32 0, i32 2
  %16 = load ptr, ptr %15, align 8, !tbaa !29
  %17 = getelementptr inbounds nuw %"struct.icu_77::LSR", ptr %5, i32 0, i32 2
  store ptr %16, ptr %17, align 8, !tbaa !29
  %18 = load ptr, ptr %4, align 8, !tbaa !23
  %19 = getelementptr inbounds nuw %"struct.icu_77::LSR", ptr %18, i32 0, i32 4
  %20 = load i32, ptr %19, align 8, !tbaa !31
  %21 = getelementptr inbounds nuw %"struct.icu_77::LSR", ptr %5, i32 0, i32 4
  store i32 %20, ptr %21, align 8, !tbaa !31
  %22 = load ptr, ptr %4, align 8, !tbaa !23
  %23 = getelementptr inbounds nuw %"struct.icu_77::LSR", ptr %22, i32 0, i32 5
  %24 = load i32, ptr %23, align 4, !tbaa !32
  %25 = getelementptr inbounds nuw %"struct.icu_77::LSR", ptr %5, i32 0, i32 5
  store i32 %24, ptr %25, align 4, !tbaa !32
  %26 = load ptr, ptr %4, align 8, !tbaa !23
  %27 = getelementptr inbounds nuw %"struct.icu_77::LSR", ptr %26, i32 0, i32 3
  %28 = load ptr, ptr %27, align 8, !tbaa !30
  %29 = getelementptr inbounds nuw %"struct.icu_77::LSR", ptr %5, i32 0, i32 3
  store ptr %28, ptr %29, align 8, !tbaa !30
  %30 = load ptr, ptr %4, align 8, !tbaa !23
  %31 = getelementptr inbounds nuw %"struct.icu_77::LSR", ptr %30, i32 0, i32 6
  %32 = load i32, ptr %31, align 8, !tbaa !33
  %33 = getelementptr inbounds nuw %"struct.icu_77::LSR", ptr %5, i32 0, i32 6
  store i32 %32, ptr %33, align 8, !tbaa !33
  %34 = getelementptr inbounds nuw %"struct.icu_77::LSR", ptr %5, i32 0, i32 3
  %35 = load ptr, ptr %34, align 8, !tbaa !30
  %36 = icmp ne ptr %35, null
  br i1 %36, label %37, label %46

37:                                               ; preds = %2
  %38 = load ptr, ptr %4, align 8, !tbaa !23
  %39 = getelementptr inbounds nuw %"struct.icu_77::LSR", ptr %38, i32 0, i32 1
  store ptr @.str, ptr %39, align 8, !tbaa !28
  %40 = load ptr, ptr %4, align 8, !tbaa !23
  %41 = getelementptr inbounds nuw %"struct.icu_77::LSR", ptr %40, i32 0, i32 0
  store ptr @.str, ptr %41, align 8, !tbaa !26
  %42 = load ptr, ptr %4, align 8, !tbaa !23
  %43 = getelementptr inbounds nuw %"struct.icu_77::LSR", ptr %42, i32 0, i32 3
  store ptr null, ptr %43, align 8, !tbaa !30
  %44 = load ptr, ptr %4, align 8, !tbaa !23
  %45 = getelementptr inbounds nuw %"struct.icu_77::LSR", ptr %44, i32 0, i32 6
  store i32 0, ptr %45, align 8, !tbaa !33
  br label %46

46:                                               ; preds = %37, %2
  ret ptr %5
}