; Function Attrs: mustprogress nounwind uwtable
define noundef nonnull align 8 dereferenceable(48) ptr @_ZN6icu_773LSRaSEOS0_(ptr noundef nonnull returned align 8 dereferenceable(48) %0, ptr noundef nonnull align 8 captures(none) dereferenceable(48) %1) local_unnamed_addr #0 align 2 personality ptr @__gxx_personality_v0 {
  %3 = getelementptr inbounds nuw i8, ptr %0, i64 24
  %4 = load ptr, ptr %3, align 8, !tbaa !17
  %.not.i = icmp eq ptr %4, null
  br i1 %.not.i, label %_ZN6icu_773LSRD2Ev.exit, label %5

5:                                                ; preds = %2
  invoke void @uprv_free_77(ptr noundef nonnull %4)
          to label %_ZN6icu_773LSRD2Ev.exit unwind label %6

6:                                                ; preds = %5
  %7 = landingpad { ptr, i32 }
          catch ptr null
  %8 = extractvalue { ptr, i32 } %7, 0
  tail call void @__clang_call_terminate(ptr %8) #18
  unreachable

_ZN6icu_773LSRD2Ev.exit:                          ; preds = %2, %5
  %9 = load ptr, ptr %1, align 8, !tbaa !24
  store ptr %9, ptr %0, align 8, !tbaa !24
  %10 = getelementptr inbounds nuw i8, ptr %1, i64 8
  %11 = load ptr, ptr %10, align 8, !tbaa !25
  %12 = getelementptr inbounds nuw i8, ptr %0, i64 8
  store ptr %11, ptr %12, align 8, !tbaa !25
  %13 = getelementptr inbounds nuw i8, ptr %1, i64 16
  %14 = load ptr, ptr %13, align 8, !tbaa !15
  %15 = getelementptr inbounds nuw i8, ptr %0, i64 16
  store ptr %14, ptr %15, align 8, !tbaa !15
  %16 = getelementptr inbounds nuw i8, ptr %1, i64 32
  %17 = load i32, ptr %16, align 8, !tbaa !19
  %18 = getelementptr inbounds nuw i8, ptr %0, i64 32
  store i32 %17, ptr %18, align 8, !tbaa !19
  %19 = getelementptr inbounds nuw i8, ptr %1, i64 36
  %20 = load i32, ptr %19, align 4, !tbaa !20
  %21 = getelementptr inbounds nuw i8, ptr %0, i64 36
  store i32 %20, ptr %21, align 4, !tbaa !20
  %22 = getelementptr inbounds nuw i8, ptr %1, i64 24
  %23 = load ptr, ptr %22, align 8, !tbaa !17
  store ptr %23, ptr %3, align 8, !tbaa !17
  %24 = getelementptr inbounds nuw i8, ptr %1, i64 40
  %25 = load i32, ptr %24, align 8, !tbaa !21
  %26 = getelementptr inbounds nuw i8, ptr %0, i64 40
  store i32 %25, ptr %26, align 8, !tbaa !21
  %.not = icmp eq ptr %23, null
  br i1 %.not, label %28, label %27

27:                                               ; preds = %_ZN6icu_773LSRD2Ev.exit
  store ptr @.str, ptr %10, align 8, !tbaa !25
  store ptr @.str, ptr %1, align 8, !tbaa !24
  store ptr null, ptr %22, align 8, !tbaa !17
  store i32 0, ptr %24, align 8, !tbaa !21
  br label %28

28:                                               ; preds = %27, %_ZN6icu_773LSRD2Ev.exit
  ret ptr %0
}